target datalayout = "e-m:e-p270:32:32-p271:32:32-p272:64:64-i64:64-i128:128-f80:128-n8:16:32:64-S128"
target triple = "x86_64-pc-linux-gnu"

%struct.pointf_s = type { double, double }

; Function Attrs: nounwind uwtable
define void @bezier_clip(ptr noundef %0, ptr noundef %1, ptr noundef %2, i1 noundef zeroext %3) #0 {
  %5 = alloca ptr, align 8
  %6 = alloca ptr, align 8
  %7 = alloca ptr, align 8
  %8 = alloca i8, align 1
  %9 = alloca [4 x %struct.pointf_s], align 16
  %10 = alloca [4 x %struct.pointf_s], align 16
  %11 = alloca %struct.pointf_s, align 8
  %12 = alloca %struct.pointf_s, align 8
  %13 = alloca ptr, align 8
  %14 = alloca ptr, align 8
  %15 = alloca double, align 8
  %16 = alloca double, align 8
  %17 = alloca double, align 8
  %18 = alloca ptr, align 8
  %19 = alloca ptr, align 8
  %20 = alloca i8, align 1
  %21 = alloca i32, align 4
  %22 = alloca %struct.pointf_s, align 8
  store ptr %0, ptr %5, align 8, !tbaa !3
  store ptr %1, ptr %6, align 8, !tbaa !8
  store ptr %2, ptr %7, align 8, !tbaa !9
  %23 = zext i1 %3 to i8
  store i8 %23, ptr %8, align 1, !tbaa !11
  call void @llvm.lifetime.start.p0(i64 64, ptr %9) #12
  call void @llvm.lifetime.start.p0(i64 64, ptr %10) #12
  call void @llvm.lifetime.start.p0(i64 16, ptr %11) #12
  call void @llvm.lifetime.start.p0(i64 16, ptr %12) #12
  call void @llvm.lifetime.start.p0(i64 8, ptr %13) #12
  call void @llvm.lifetime.start.p0(i64 8, ptr %14) #12
  call void @llvm.lifetime.start.p0(i64 8, ptr %15) #12
  call void @llvm.lifetime.start.p0(i64 8, ptr %16) #12
  call void @llvm.lifetime.start.p0(i64 8, ptr %17) #12
  call void @llvm.lifetime.start.p0(i64 8, ptr %18) #12
  call void @llvm.lifetime.start.p0(i64 8, ptr %19) #12
  call void @llvm.lifetime.start.p0(i64 1, ptr %20) #12
  call void @llvm.lifetime.start.p0(i64 4, ptr %21) #12
  %24 = load i8, ptr %8, align 1, !tbaa !11, !range !13, !noundef !14
  %25 = trunc i8 %24 to i1
  br i1 %25, label %26, label %30

26:                                               ; preds = %4
  store ptr null, ptr %13, align 8, !tbaa !9
  %27 = getelementptr inbounds [4 x %struct.pointf_s], ptr %9, i64 0, i64 0
  store ptr %27, ptr %14, align 8, !tbaa !9
  %28 = load ptr, ptr %7, align 8, !tbaa !9
  %29 = getelementptr inbounds %struct.pointf_s, ptr %28, i64 0
  call void @llvm.memcpy.p0.p0.i64(ptr align 8 %11, ptr align 8 %29, i64 16, i1 false), !tbaa.struct !15
  store ptr %15, ptr %18, align 8, !tbaa !18
  store ptr %16, ptr %19, align 8, !tbaa !18
  br label %34

30:                                               ; preds = %4
  %31 = getelementptr inbounds [4 x %struct.pointf_s], ptr %9, i64 0, i64 0
  store ptr %31, ptr %13, align 8, !tbaa !9
  store ptr null, ptr %14, align 8, !tbaa !9
  %32 = load ptr, ptr %7, align 8, !tbaa !9
  %33 = getelementptr inbounds %struct.pointf_s, ptr %32, i64 3
  call void @llvm.memcpy.p0.p0.i64(ptr align 8 %11, ptr align 8 %33, i64 16, i1 false), !tbaa.struct !15
  store ptr %16, ptr %18, align 8, !tbaa !18
  store ptr %15, ptr %19, align 8, !tbaa !18
  br label %34

34:                                               ; preds = %30, %26
  store i8 0, ptr %20, align 1, !tbaa !11
  store double 0.000000e+00, ptr %15, align 8, !tbaa !16
  store double 1.000000e+00, ptr %16, align 8, !tbaa !16
  br label %35

35:                                               ; preds = %93, %34
  call void @llvm.memcpy.p0.p0.i64(ptr align 8 %12, ptr align 8 %11, i64 16, i1 false), !tbaa.struct !15
  %36 = load double, ptr %16, align 8, !tbaa !16
  %37 = load double, ptr %15, align 8, !tbaa !16
  %38 = fadd double %36, %37
  %39 = fdiv double %38, 2.000000e+00
  store double %39, ptr %17, align 8, !tbaa !16
  call void @llvm.lifetime.start.p0(i64 16, ptr %22) #12
  %40 = load ptr, ptr %7, align 8, !tbaa !9
  %41 = load double, ptr %17, align 8, !tbaa !16
  %42 = load ptr, ptr %13, align 8, !tbaa !9
  %43 = load ptr, ptr %14, align 8, !tbaa !9
  %44 = call { double, double } @Bezier(ptr noundef %40, double noundef %41, ptr noundef %42, ptr noundef %43)
  %45 = getelementptr inbounds nuw { double, double }, ptr %22, i32 0, i32 0
  %46 = extractvalue { double, double } %44, 0
  store double %46, ptr %45, align 8
  %47 = getelementptr inbounds nuw { double, double }, ptr %22, i32 0, i32 1
  %48 = extractvalue { double, double } %44, 1
  store double %48, ptr %47, align 8
  call void @llvm.memcpy.p0.p0.i64(ptr align 8 %11, ptr align 8 %22, i64 16, i1 false), !tbaa.struct !15
  call void @llvm.lifetime.end.p0(i64 16, ptr %22) #12
  %49 = load ptr, ptr %6, align 8, !tbaa !8
  %50 = load ptr, ptr %5, align 8, !tbaa !3
  %51 = getelementptr inbounds nuw { double, double }, ptr %11, i32 0, i32 0
  %52 = load double, ptr %51, align 8
  %53 = getelementptr inbounds nuw { double, double }, ptr %11, i32 0, i32 1
  %54 = load double, ptr %53, align 8
  %55 = call zeroext i1 %49(ptr noundef %50, double %52, double %54)
  br i1 %55, label %56, label %73

56:                                               ; preds = %35
  %57 = load double, ptr %17, align 8, !tbaa !16
  %58 = load ptr, ptr %18, align 8, !tbaa !18
  store double %57, ptr %58, align 8, !tbaa !16
  store i32 0, ptr %21, align 4, !tbaa !20
  br label %59

59:                                               ; preds = %69, %56
  %60 = load i32, ptr %21, align 4, !tbaa !20
  %61 = icmp slt i32 %60, 4
  br i1 %61, label %62, label %72

62:                                               ; preds = %59
  %63 = load i32, ptr %21, align 4, !tbaa !20
  %64 = sext i32 %63 to i64
  %65 = getelementptr inbounds [4 x %struct.pointf_s], ptr %10, i64 0, i64 %64
  %66 = load i32, ptr %21, align 4, !tbaa !20
  %67 = sext i32 %66 to i64
  %68 = getelementptr inbounds [4 x %struct.pointf_s], ptr %9, i64 0, i64 %67
  call void @llvm.memcpy.p0.p0.i64(ptr align 16 %65, ptr align 16 %68, i64 16, i1 false), !tbaa.struct !15
  br label %69

69:                                               ; preds = %62
  %70 = load i32, ptr %21, align 4, !tbaa !20
  %71 = add nsw i32 %70, 1
  store i32 %71, ptr %21, align 4, !tbaa !20
  br label %59, !llvm.loop !22

72:                                               ; preds = %59
  store i8 1, ptr %20, align 1, !tbaa !11
  br label %76

73:                                               ; preds = %35
  %74 = load double, ptr %17, align 8, !tbaa !16
  %75 = load ptr, ptr %19, align 8, !tbaa !18
  store double %74, ptr %75, align 8, !tbaa !16
  br label %76

76:                                               ; preds = %73, %72
  br label %77

77:                                               ; preds = %76
  %78 = getelementptr inbounds nuw %struct.pointf_s, ptr %12, i32 0, i32 0
  %79 = load double, ptr %78, align 8, !tbaa !24
  %80 = getelementptr inbounds nuw %struct.pointf_s, ptr %11, i32 0, i32 0
  %81 = load double, ptr %80, align 8, !tbaa !24
  %82 = fsub double %79, %81
  %83 = call double @llvm.fabs.f64(double %82)
  %84 = fcmp ogt double %83, 5.000000e-01
  br i1 %84, label %93, label %85

85:                                               ; preds = %77
  %86 = getelementptr inbounds nuw %struct.pointf_s, ptr %12, i32 0, i32 1
  %87 = load double, ptr %86, align 8, !tbaa !26
  %88 = getelementptr inbounds nuw %struct.pointf_s, ptr %11, i32 0, i32 1
  %89 = load double, ptr %88, align 8, !tbaa !26
  %90 = fsub double %87, %89
  %91 = call double @llvm.fabs.f64(double %90)
  %92 = fcmp ogt double %91, 5.000000e-01
  br label %93

93:                                               ; preds = %85, %77
  %94 = phi i1 [ true, %77 ], [ %92, %85 ]
  br i1 %94, label %35, label %95, !llvm.loop !27

95:                                               ; preds = %93
  %96 = load i8, ptr %20, align 1, !tbaa !11, !range !13, !noundef !14
  %97 = trunc i8 %96 to i1
  br i1 %97, label %98, label %114

98:                                               ; preds = %95
  store i32 0, ptr %21, align 4, !tbaa !20
  br label %99

99:                                               ; preds = %110, %98
  %100 = load i32, ptr %21, align 4, !tbaa !20
  %101 = icmp slt i32 %100, 4
  br i1 %101, label %102, label %113

102:                                              ; preds = %99
  %103 = load ptr, ptr %7, align 8, !tbaa !9
  %104 = load i32, ptr %21, align 4, !tbaa !20
  %105 = sext i32 %104 to i64
  %106 = getelementptr inbounds %struct.pointf_s, ptr %103, i64 %105
  %107 = load i32, ptr %21, align 4, !tbaa !20
  %108 = sext i32 %107 to i64
  %109 = getelementptr inbounds [4 x %struct.pointf_s], ptr %10, i64 0, i64 %108
  call void @llvm.memcpy.p0.p0.i64(ptr align 8 %106, ptr align 16 %109, i64 16, i1 false), !tbaa.struct !15
  br label %110

110:                                              ; preds = %102
  %111 = load i32, ptr %21, align 4, !tbaa !20
  %112 = add nsw i32 %111, 1
  store i32 %112, ptr %21, align 4, !tbaa !20
  br label %99, !llvm.loop !28

113:                                              ; preds = %99
  br label %130

114:                                              ; preds = %95
  store i32 0, ptr %21, align 4, !tbaa !20
  br label %115

115:                                              ; preds = %126, %114
  %116 = load i32, ptr %21, align 4, !tbaa !20
  %117 = icmp slt i32 %116, 4
  br i1 %117, label %118, label %129

118:                                              ; preds = %115
  %119 = load ptr, ptr %7, align 8, !tbaa !9
  %120 = load i32, ptr %21, align 4, !tbaa !20
  %121 = sext i32 %120 to i64
  %122 = getelementptr inbounds %struct.pointf_s, ptr %119, i64 %121
  %123 = load i32, ptr %21, align 4, !tbaa !20
  %124 = sext i32 %123 to i64
  %125 = getelementptr inbounds [4 x %struct.pointf_s], ptr %9, i64 0, i64 %124
  call void @llvm.memcpy.p0.p0.i64(ptr align 8 %122, ptr align 16 %125, i64 16, i1 false), !tbaa.struct !15
  br label %126

126:                                              ; preds = %118
  %127 = load i32, ptr %21, align 4, !tbaa !20
  %128 = add nsw i32 %127, 1
  store i32 %128, ptr %21, align 4, !tbaa !20
  br label %115, !llvm.loop !29

129:                                              ; preds = %115
  br label %130

130:                                              ; preds = %129, %113
  call void @llvm.lifetime.end.p0(i64 4, ptr %21) #12
  call void @llvm.lifetime.end.p0(i64 1, ptr %20) #12
  call void @llvm.lifetime.end.p0(i64 8, ptr %19) #12
  call void @llvm.lifetime.end.p0(i64 8, ptr %18) #12
  call void @llvm.lifetime.end.p0(i64 8, ptr %17) #12
  call void @llvm.lifetime.end.p0(i64 8, ptr %16) #12
  call void @llvm.lifetime.end.p0(i64 8, ptr %15) #12
  call void @llvm.lifetime.end.p0(i64 8, ptr %14) #12
  call void @llvm.lifetime.end.p0(i64 8, ptr %13) #12
  call void @llvm.lifetime.end.p0(i64 16, ptr %12) #12
  call void @llvm.lifetime.end.p0(i64 16, ptr %11) #12
  call void @llvm.lifetime.end.p0(i64 64, ptr %10) #12
  call void @llvm.lifetime.end.p0(i64 64, ptr %9) #12
  ret void
}