; Function Attrs: nounwind uwtable
define void @bezier_clip(ptr noundef %0, ptr noundef readonly captures(none) %1, ptr noundef %2, i1 noundef zeroext %3) local_unnamed_addr #0 {
  %5 = alloca [4 x %struct.pointf_s], align 16
  %6 = alloca [4 x %struct.pointf_s], align 16
  %7 = alloca double, align 8
  %8 = alloca double, align 8
  call void @llvm.lifetime.start.p0(i64 64, ptr nonnull %5) #17
  call void @llvm.lifetime.start.p0(i64 64, ptr nonnull %6)
  call void @llvm.lifetime.start.p0(i64 8, ptr nonnull %7)
  call void @llvm.lifetime.start.p0(i64 8, ptr nonnull %8)
  br i1 %3, label %11, label %9

9:                                                ; preds = %4
  %10 = getelementptr inbounds nuw i8, ptr %2, i64 48
  br label %11

11:                                               ; preds = %4, %9
  %.sink = phi i64 [ 56, %9 ], [ 8, %4 ]
  %.040 = phi ptr [ null, %9 ], [ %5, %4 ]
  %.039 = phi ptr [ %5, %9 ], [ null, %4 ]
  %.038 = phi ptr [ %8, %9 ], [ %7, %4 ]
  %.037 = phi ptr [ %7, %9 ], [ %8, %4 ]
  %.sroa.021.0.in = phi ptr [ %10, %9 ], [ %2, %4 ]
  %.sroa.8.0..sroa_idx24 = getelementptr inbounds nuw i8, ptr %2, i64 %.sink
  %.sroa.8.0 = load double, ptr %.sroa.8.0..sroa_idx24, align 8, !tbaa !3
  %.sroa.021.0 = load double, ptr %.sroa.021.0.in, align 8, !tbaa !3
  store double 0.000000e+00, ptr %7, align 8, !tbaa !3
  store double 1.000000e+00, ptr %8, align 8, !tbaa !3
  br label %.critedge

.critedge:                                        ; preds = %.critedge.backedge, %11
  %.035 = phi i1 [ false, %11 ], [ %.136, %.critedge.backedge ]
  %.sroa.021.1 = phi double [ %.sroa.021.0, %11 ], [ %15, %.critedge.backedge ]
  %.sroa.8.1 = phi double [ %.sroa.8.0, %11 ], [ %16, %.critedge.backedge ]
  %12 = phi double [ 1.000000e+00, %11 ], [ %26, %.critedge.backedge ]
  %13 = fmul double %12, 5.000000e-01
  %14 = call { double, double } @Bezier(ptr noundef %2, double noundef %13, ptr noundef %.039, ptr noundef %.040) #17
  %15 = extractvalue { double, double } %14, 0
  %16 = extractvalue { double, double } %14, 1
  %17 = call zeroext i1 %1(ptr noundef %0, double %15, double %16) #17
  br i1 %17, label %.loopexit44.loopexit, label %18

.loopexit44.loopexit:                             ; preds = %.critedge
  store double %13, ptr %.038, align 8, !tbaa !3
  call void @llvm.memcpy.p0.p0.i64(ptr noundef nonnull align 16 dereferenceable(64) %6, ptr noundef nonnull align 16 dereferenceable(64) %5, i64 64, i1 false)
  br label %.loopexit44

18:                                               ; preds = %.critedge
  store double %13, ptr %.037, align 8, !tbaa !3
  br label %.loopexit44

.loopexit44:                                      ; preds = %.loopexit44.loopexit, %18
  %.136 = phi i1 [ %.035, %18 ], [ true, %.loopexit44.loopexit ]
  %19 = fsub double %.sroa.021.1, %15
  %20 = call double @llvm.fabs.f64(double %19)
  %21 = fcmp ogt double %20, 5.000000e-01
  br i1 %21, label %.critedge.backedge, label %22

22:                                               ; preds = %.loopexit44
  %23 = fsub double %.sroa.8.1, %16
  %24 = call double @llvm.fabs.f64(double %23)
  %25 = fcmp ogt double %24, 5.000000e-01
  br i1 %25, label %.critedge.backedge, label %.loopexit

.critedge.backedge:                               ; preds = %22, %.loopexit44
  %.0..0..0..0.41.pre = load double, ptr %8, align 8, !tbaa !3
  %.0..0..0..0..pre = load double, ptr %7, align 8, !tbaa !3
  %26 = fadd double %.0..0..0..0.41.pre, %.0..0..0..0..pre
  br label %.critedge, !llvm.loop !7

.loopexit:                                        ; preds = %22
  %. = select i1 %.136, ptr %6, ptr %5
  call void @llvm.memcpy.p0.p0.i64(ptr noundef nonnull align 8 dereferenceable(64) %2, ptr noundef nonnull align 16 dereferenceable(64) %., i64 64, i1 false)
  call void @llvm.lifetime.end.p0(i64 8, ptr nonnull %8)
  call void @llvm.lifetime.end.p0(i64 8, ptr nonnull %7)
  call void @llvm.lifetime.end.p0(i64 64, ptr nonnull %6)
  call void @llvm.lifetime.end.p0(i64 64, ptr nonnull %5) #17
  ret void
}